target datalayout = "e-m:e-p270:32:32-p271:32:32-p272:64:64-i64:64-i128:128-f80:128-n8:16:32:64-S128"
target triple = "x86_64-pc-linux-gnu"

%struct.strvec = type { ptr, i64, i64 }
%struct.strbuf = type { i64, i64, ptr }

@__const.parse_pathspec_file.parsed_file = private unnamed_addr constant %struct.strvec { ptr @empty_strvec, i64 0, i64 0 }, align 8
@strbuf_slopbuf = external global [0 x i8], align 1
@__const.parse_pathspec_file.buf = private unnamed_addr constant %struct.strbuf { i64 0, i64 0, ptr @strbuf_slopbuf }, align 8
@__const.parse_pathspec_file.unquoted = private unnamed_addr constant %struct.strbuf { i64 0, i64 0, ptr @strbuf_slopbuf }, align 8
@.str.10 = private unnamed_addr constant [2 x i8] c"-\00", align 1
@stdin = external global ptr, align 8
@.str.11 = private unnamed_addr constant [2 x i8] c"r\00", align 1
@.str.12 = private unnamed_addr constant [25 x i8] c"line is badly quoted: %s\00", align 1
@.str.53 = private unnamed_addr constant [11 x i8] c"./strbuf.h\00", align 1
@.str.54 = private unnamed_addr constant [30 x i8] c"strbuf_setlen() beyond buffer\00", align 1

; Function Attrs: inlinehint nounwind uwtable
define internal void @strbuf_swap(ptr noundef %0, ptr noundef %1) #3 {
  %3 = alloca ptr, align 8
  %4 = alloca ptr, align 8
  %5 = alloca ptr, align 8
  %6 = alloca ptr, align 8
  %7 = alloca [24 x i8], align 16
  store ptr %0, ptr %3, align 8, !tbaa !58
  store ptr %1, ptr %4, align 8, !tbaa !58
  br label %8

8:                                                ; preds = %2
  call void @llvm.lifetime.start.p0(i64 8, ptr %5) #10
  %9 = load ptr, ptr %3, align 8, !tbaa !58
  store ptr %9, ptr %5, align 8, !tbaa !91
  call void @llvm.lifetime.start.p0(i64 8, ptr %6) #10
  %10 = load ptr, ptr %4, align 8, !tbaa !58
  store ptr %10, ptr %6, align 8, !tbaa !91
  call void @llvm.lifetime.start.p0(i64 24, ptr %7) #10
  %11 = getelementptr inbounds [24 x i8], ptr %7, i64 0, i64 0
  %12 = load ptr, ptr %5, align 8, !tbaa !91
  call void @llvm.memcpy.p0.p0.i64(ptr align 16 %11, ptr align 1 %12, i64 24, i1 false)
  %13 = load ptr, ptr %5, align 8, !tbaa !91
  %14 = load ptr, ptr %6, align 8, !tbaa !91
  call void @llvm.memcpy.p0.p0.i64(ptr align 1 %13, ptr align 1 %14, i64 24, i1 false)
  %15 = load ptr, ptr %6, align 8, !tbaa !91
  %16 = getelementptr inbounds [24 x i8], ptr %7, i64 0, i64 0
  call void @llvm.memcpy.p0.p0.i64(ptr align 1 %15, ptr align 16 %16, i64 24, i1 false)
  call void @llvm.lifetime.end.p0(i64 24, ptr %7) #10
  call void @llvm.lifetime.end.p0(i64 8, ptr %6) #10
  call void @llvm.lifetime.end.p0(i64 8, ptr %5) #10
  br label %17

17:                                               ; preds = %8
  ret void
}

; Function Attrs: inlinehint nounwind uwtable
define internal void @strbuf_setlen(ptr noundef %0, i64 noundef %1) #3 {
  %3 = alloca ptr, align 8
  %4 = alloca i64, align 8
  store ptr %0, ptr %3, align 8, !tbaa !58
  store i64 %1, ptr %4, align 8, !tbaa !85
  %5 = load i64, ptr %4, align 8, !tbaa !85
  %6 = load ptr, ptr %3, align 8, !tbaa !58
  %7 = getelementptr inbounds nuw %struct.strbuf, ptr %6, i32 0, i32 0
  %8 = load i64, ptr %7, align 8, !tbaa !97
  %9 = icmp ne i64 %8, 0
  br i1 %9, label %10, label %15

10:                                               ; preds = %2
  %11 = load ptr, ptr %3, align 8, !tbaa !58
  %12 = getelementptr inbounds nuw %struct.strbuf, ptr %11, i32 0, i32 0
  %13 = load i64, ptr %12, align 8, !tbaa !97
  %14 = sub i64 %13, 1
  br label %16

15:                                               ; preds = %2
  br label %16

16:                                               ; preds = %15, %10
  %17 = phi i64 [ %14, %10 ], [ 0, %15 ]
  %18 = icmp ugt i64 %5, %17
  br i1 %18, label %19, label %20

19:                                               ; preds = %16
  call void (ptr, i32, ptr, ...) @BUG_fl(ptr noundef @.str.53, i32 noundef 167, ptr noundef @.str.54) #12
  unreachable

20:                                               ; preds = %16
  %21 = load i64, ptr %4, align 8, !tbaa !85
  %22 = load ptr, ptr %3, align 8, !tbaa !58
  %23 = getelementptr inbounds nuw %struct.strbuf, ptr %22, i32 0, i32 1
  store i64 %21, ptr %23, align 8, !tbaa !64
  %24 = load ptr, ptr %3, align 8, !tbaa !58
  %25 = getelementptr inbounds nuw %struct.strbuf, ptr %24, i32 0, i32 2
  %26 = load ptr, ptr %25, align 8, !tbaa !90
  %27 = icmp ne ptr %26, @strbuf_slopbuf
  br i1 %27, label %28, label %34

28:                                               ; preds = %20
  %29 = load ptr, ptr %3, align 8, !tbaa !58
  %30 = getelementptr inbounds nuw %struct.strbuf, ptr %29, i32 0, i32 2
  %31 = load ptr, ptr %30, align 8, !tbaa !90
  %32 = load i64, ptr %4, align 8, !tbaa !85
  %33 = getelementptr inbounds nuw i8, ptr %31, i64 %32
  store i8 0, ptr %33, align 1, !tbaa !18
  br label %35

34:                                               ; preds = %20
  br label %35

35:                                               ; preds = %34, %28
  ret void
}

; Function Attrs: nounwind uwtable
define dso_local void @parse_pathspec_file(ptr noundef %0, i32 noundef %1, i32 noundef %2, ptr noundef %3, ptr noundef %4, i32 noundef %5) #0 {
  %7 = alloca ptr, align 8
  %8 = alloca i32, align 4
  %9 = alloca i32, align 4
  %10 = alloca ptr, align 8
  %11 = alloca ptr, align 8
  %12 = alloca i32, align 4
  %13 = alloca %struct.strvec, align 8
  %14 = alloca ptr, align 8
  %15 = alloca %struct.strbuf, align 8
  %16 = alloca %struct.strbuf, align 8
  %17 = alloca ptr, align 8
  store ptr %0, ptr %7, align 8, !tbaa !4
  store i32 %1, ptr %8, align 4, !tbaa !13
  store i32 %2, ptr %9, align 4, !tbaa !13
  store ptr %3, ptr %10, align 8, !tbaa !11
  store ptr %4, ptr %11, align 8, !tbaa !11
  store i32 %5, ptr %12, align 4, !tbaa !13
  call void @llvm.lifetime.start.p0(i64 24, ptr %13) #10
  call void @llvm.memcpy.p0.p0.i64(ptr align 8 %13, ptr align 8 @__const.parse_pathspec_file.parsed_file, i64 24, i1 false)
  call void @llvm.lifetime.start.p0(i64 8, ptr %14) #10
  %18 = load i32, ptr %12, align 4, !tbaa !13
  %19 = icmp ne i32 %18, 0
  %20 = select i1 %19, ptr @strbuf_getline_nul, ptr @strbuf_getline
  store ptr %20, ptr %14, align 8, !tbaa !91
  call void @llvm.lifetime.start.p0(i64 24, ptr %15) #10
  call void @llvm.memcpy.p0.p0.i64(ptr align 8 %15, ptr align 8 @__const.parse_pathspec_file.buf, i64 24, i1 false)
  call void @llvm.lifetime.start.p0(i64 24, ptr %16) #10
  call void @llvm.memcpy.p0.p0.i64(ptr align 8 %16, ptr align 8 @__const.parse_pathspec_file.unquoted, i64 24, i1 false)
  call void @llvm.lifetime.start.p0(i64 8, ptr %17) #10
  %21 = load ptr, ptr %11, align 8, !tbaa !11
  %22 = call i32 @strcmp(ptr noundef %21, ptr noundef @.str.10) #11
  %23 = icmp ne i32 %22, 0
  br i1 %23, label %26, label %24

24:                                               ; preds = %6
  %25 = load ptr, ptr @stdin, align 8, !tbaa !92
  store ptr %25, ptr %17, align 8, !tbaa !92
  br label %29

26:                                               ; preds = %6
  %27 = load ptr, ptr %11, align 8, !tbaa !11
  %28 = call ptr @xfopen(ptr noundef %27, ptr noundef @.str.11)
  store ptr %28, ptr %17, align 8, !tbaa !92
  br label %29

29:                                               ; preds = %26, %24
  br label %30

30:                                               ; preds = %55, %29
  %31 = load ptr, ptr %14, align 8, !tbaa !91
  %32 = load ptr, ptr %17, align 8, !tbaa !92
  %33 = call i32 %31(ptr noundef %15, ptr noundef %32)
  %34 = icmp ne i32 %33, -1
  br i1 %34, label %35, label %59

35:                                               ; preds = %30
  %36 = load i32, ptr %12, align 4, !tbaa !13
  %37 = icmp ne i32 %36, 0
  br i1 %37, label %55, label %38

38:                                               ; preds = %35
  %39 = getelementptr inbounds nuw %struct.strbuf, ptr %15, i32 0, i32 2
  %40 = load ptr, ptr %39, align 8, !tbaa !90
  %41 = getelementptr inbounds i8, ptr %40, i64 0
  %42 = load i8, ptr %41, align 1, !tbaa !18
  %43 = sext i8 %42 to i32
  %44 = icmp eq i32 %43, 34
  br i1 %44, label %45, label %55

45:                                               ; preds = %38
  call void @strbuf_setlen(ptr noundef %16, i64 noundef 0)
  %46 = getelementptr inbounds nuw %struct.strbuf, ptr %15, i32 0, i32 2
  %47 = load ptr, ptr %46, align 8, !tbaa !90
  %48 = call i32 @unquote_c_style(ptr noundef %16, ptr noundef %47, ptr noundef null)
  %49 = icmp ne i32 %48, 0
  br i1 %49, label %50, label %54

50:                                               ; preds = %45
  %51 = call ptr @_(ptr noundef @.str.12)
  %52 = getelementptr inbounds nuw %struct.strbuf, ptr %15, i32 0, i32 2
  %53 = load ptr, ptr %52, align 8, !tbaa !90
  call void (ptr, ...) @die(ptr noundef %51, ptr noundef %53) #12
  unreachable

54:                                               ; preds = %45
  call void @strbuf_swap(ptr noundef %15, ptr noundef %16)
  br label %55

55:                                               ; preds = %54, %38, %35
  %56 = getelementptr inbounds nuw %struct.strbuf, ptr %15, i32 0, i32 2
  %57 = load ptr, ptr %56, align 8, !tbaa !90
  %58 = call ptr @strvec_push(ptr noundef %13, ptr noundef %57)
  call void @strbuf_setlen(ptr noundef %15, i64 noundef 0)
  br label %30, !llvm.loop !94

59:                                               ; preds = %30
  call void @strbuf_release(ptr noundef %16)
  call void @strbuf_release(ptr noundef %15)
  %60 = load ptr, ptr %17, align 8, !tbaa !92
  %61 = load ptr, ptr @stdin, align 8, !tbaa !92
  %62 = icmp ne ptr %60, %61
  br i1 %62, label %63, label %66

63:                                               ; preds = %59
  %64 = load ptr, ptr %17, align 8, !tbaa !92
  %65 = call i32 @fclose(ptr noundef %64)
  br label %66

66:                                               ; preds = %63, %59
  %67 = load ptr, ptr %7, align 8, !tbaa !4
  %68 = load i32, ptr %8, align 4, !tbaa !13
  %69 = load i32, ptr %9, align 4, !tbaa !13
  %70 = load ptr, ptr %10, align 8, !tbaa !11
  %71 = getelementptr inbounds nuw %struct.strvec, ptr %13, i32 0, i32 0
  %72 = load ptr, ptr %71, align 8, !tbaa !95
  call void @parse_pathspec(ptr noundef %67, i32 noundef %68, i32 noundef %69, ptr noundef %70, ptr noundef %72)
  call void @strvec_clear(ptr noundef %13)
  call void @llvm.lifetime.end.p0(i64 8, ptr %17) #10
  call void @llvm.lifetime.end.p0(i64 24, ptr %16) #10
  call void @llvm.lifetime.end.p0(i64 24, ptr %15) #10
  call void @llvm.lifetime.end.p0(i64 8, ptr %14) #10
  call void @llvm.lifetime.end.p0(i64 24, ptr %13) #10
  ret void
}