; Function Attrs: nounwind uwtable
define dso_local void @parse_pathspec_file(ptr noundef captures(none) %0, i32 noundef %1, i32 noundef %2, ptr noundef %3, ptr noundef %4, i32 noundef %5) local_unnamed_addr #0 {
sub_0:
  %6 = alloca [24 x i8], align 16
  %7 = alloca %struct.strvec, align 8
  %8 = alloca %struct.strbuf, align 8
  %9 = alloca %struct.strbuf, align 8
  call void @llvm.lifetime.start.p0(i64 24, ptr nonnull %7) #17
  call void @llvm.memcpy.p0.p0.i64(ptr noundef nonnull align 8 dereferenceable(24) %7, ptr noundef nonnull align 8 dereferenceable(24) @__const.parse_pathspec_file.parsed_file, i64 24, i1 false)
  %.not = icmp eq i32 %5, 0
  %10 = select i1 %.not, ptr @strbuf_getline, ptr @strbuf_getline_nul
  call void @llvm.lifetime.start.p0(i64 24, ptr nonnull %8) #17
  call void @llvm.memcpy.p0.p0.i64(ptr noundef nonnull align 8 dereferenceable(24) %8, ptr noundef nonnull align 8 dereferenceable(24) @__const.unsupported_magic.sb, i64 24, i1 false)
  call void @llvm.lifetime.start.p0(i64 24, ptr nonnull %9) #17
  call void @llvm.memcpy.p0.p0.i64(ptr noundef nonnull align 8 dereferenceable(24) %9, ptr noundef nonnull align 8 dereferenceable(24) @__const.unsupported_magic.sb, i64 24, i1 false)
  %11 = load i8, ptr %4, align 1
  %.not18 = icmp eq i8 %11, 45
  br i1 %.not18, label %.tail, label %.tail.thread

.tail:                                            ; preds = %sub_0
  %12 = getelementptr inbounds nuw i8, ptr %4, i64 1
  %13 = load i8, ptr %12, align 1
  %14 = icmp eq i8 %13, 0
  br i1 %14, label %15, label %.tail.thread

15:                                               ; preds = %.tail
  %16 = load ptr, ptr @stdin, align 8, !tbaa !101
  br label %18

.tail.thread:                                     ; preds = %sub_0, %.tail
  %17 = tail call ptr @xfopen(ptr noundef nonnull %4, ptr noundef nonnull @.str.11) #17
  br label %18

18:                                               ; preds = %.tail.thread, %15
  %.0 = phi ptr [ %17, %.tail.thread ], [ %16, %15 ]
  %19 = call i32 %10(ptr noundef nonnull %8, ptr noundef %.0) #17, !callees !103
  %.not1217 = icmp eq i32 %19, -1
  br i1 %.not1217, label %._crit_edge, label %.lr.ph

.lr.ph:                                           ; preds = %18
  %20 = getelementptr inbounds nuw i8, ptr %8, i64 16
  %21 = getelementptr inbounds nuw i8, ptr %9, i64 8
  %22 = getelementptr inbounds nuw i8, ptr %9, i64 16
  %23 = getelementptr inbounds nuw i8, ptr %8, i64 8
  br i1 %.not, label %.lr.ph.split.us, label %.lr.ph.split

.lr.ph.split.us:                                  ; preds = %.lr.ph, %strbuf_setlen.exit16.us
  %24 = load ptr, ptr %20, align 8, !tbaa !97
  %25 = load i8, ptr %24, align 1, !tbaa !11
  %26 = icmp eq i8 %25, 34
  br i1 %26, label %27, label %33

27:                                               ; preds = %.lr.ph.split.us
  store i64 0, ptr %21, align 8, !tbaa !56
  %28 = load ptr, ptr %22, align 8, !tbaa !97
  %.not9.i.us = icmp eq ptr %28, @strbuf_slopbuf
  br i1 %.not9.i.us, label %strbuf_setlen.exit.us, label %29

29:                                               ; preds = %27
  store i8 0, ptr %28, align 1, !tbaa !11
  %.pre = load ptr, ptr %20, align 8, !tbaa !97
  br label %strbuf_setlen.exit.us

strbuf_setlen.exit.us:                            ; preds = %29, %27
  %30 = phi ptr [ %.pre, %29 ], [ %24, %27 ]
  %31 = call i32 @unquote_c_style(ptr noundef nonnull %9, ptr noundef %30, ptr noundef null) #17
  %.not14.us = icmp eq i32 %31, 0
  br i1 %.not14.us, label %32, label %.split.us

32:                                               ; preds = %strbuf_setlen.exit.us
  call void @llvm.lifetime.start.p0(i64 24, ptr nonnull %6)
  call void @llvm.memcpy.p0.p0.i64(ptr noundef nonnull align 16 dereferenceable(24) %6, ptr noundef nonnull align 8 dereferenceable(24) %8, i64 24, i1 false)
  call void @llvm.memcpy.p0.p0.i64(ptr noundef nonnull align 8 dereferenceable(24) %8, ptr noundef nonnull align 8 dereferenceable(24) %9, i64 24, i1 false)
  call void @llvm.memcpy.p0.p0.i64(ptr noundef nonnull align 8 dereferenceable(24) %9, ptr noundef nonnull align 16 dereferenceable(24) %6, i64 24, i1 false)
  call void @llvm.lifetime.end.p0(i64 24, ptr nonnull %6)
  %.pre20 = load ptr, ptr %20, align 8, !tbaa !97
  br label %33

33:                                               ; preds = %32, %.lr.ph.split.us
  %34 = phi ptr [ %.pre20, %32 ], [ %24, %.lr.ph.split.us ]
  %35 = call ptr @strvec_push(ptr noundef nonnull %7, ptr noundef %34) #17
  store i64 0, ptr %23, align 8, !tbaa !56
  %36 = load ptr, ptr %20, align 8, !tbaa !97
  %.not9.i15.us = icmp eq ptr %36, @strbuf_slopbuf
  br i1 %.not9.i15.us, label %strbuf_setlen.exit16.us, label %37

37:                                               ; preds = %33
  store i8 0, ptr %36, align 1, !tbaa !11
  br label %strbuf_setlen.exit16.us

strbuf_setlen.exit16.us:                          ; preds = %37, %33
  %38 = call i32 %10(ptr noundef nonnull %8, ptr noundef %.0) #17, !callees !103
  %.not12.us = icmp eq i32 %38, -1
  br i1 %.not12.us, label %._crit_edge, label %.lr.ph.split.us, !llvm.loop !104

.lr.ph.split:                                     ; preds = %.lr.ph, %strbuf_setlen.exit16
  %39 = load ptr, ptr %20, align 8, !tbaa !97
  %40 = call ptr @strvec_push(ptr noundef nonnull %7, ptr noundef %39) #17
  store i64 0, ptr %23, align 8, !tbaa !56
  %41 = load ptr, ptr %20, align 8, !tbaa !97
  %.not9.i15 = icmp eq ptr %41, @strbuf_slopbuf
  br i1 %.not9.i15, label %strbuf_setlen.exit16, label %44

.split.us:                                        ; preds = %strbuf_setlen.exit.us
  %42 = call fastcc ptr @_(ptr noundef nonnull @.str.12)
  %43 = load ptr, ptr %20, align 8, !tbaa !97
  call void (ptr, ...) @die(ptr noundef %42, ptr noundef %43) #18
  unreachable

44:                                               ; preds = %.lr.ph.split
  store i8 0, ptr %41, align 1, !tbaa !11
  br label %strbuf_setlen.exit16

strbuf_setlen.exit16:                             ; preds = %.lr.ph.split, %44
  %45 = call i32 %10(ptr noundef nonnull %8, ptr noundef %.0) #17, !callees !103
  %.not12 = icmp eq i32 %45, -1
  br i1 %.not12, label %._crit_edge, label %.lr.ph.split, !llvm.loop !104

._crit_edge:                                      ; preds = %strbuf_setlen.exit16, %strbuf_setlen.exit16.us, %18
  call void @strbuf_release(ptr noundef nonnull %9) #17
  call void @strbuf_release(ptr noundef nonnull %8) #17
  %46 = load ptr, ptr @stdin, align 8, !tbaa !101
  %.not13 = icmp eq ptr %.0, %46
  br i1 %.not13, label %49, label %47

47:                                               ; preds = %._crit_edge
  %48 = call i32 @fclose(ptr noundef %.0)
  br label %49

49:                                               ; preds = %47, %._crit_edge
  %50 = load ptr, ptr %7, align 8, !tbaa !105
  call void @parse_pathspec(ptr noundef %0, i32 noundef %1, i32 noundef %2, ptr noundef %3, ptr noundef %50)
  call void @strvec_clear(ptr noundef nonnull %7) #17
  call void @llvm.lifetime.end.p0(i64 24, ptr nonnull %9) #17
  call void @llvm.lifetime.end.p0(i64 24, ptr nonnull %8) #17
  call void @llvm.lifetime.end.p0(i64 24, ptr nonnull %7) #17
  ret void
}